target datalayout = "e-m:e-p270:32:32-p271:32:32-p272:64:64-i64:64-i128:128-f80:128-n8:16:32:64-S128"
target triple = "x86_64-pc-linux-gnu"

%"class.std::unique_ptr.81" = type { %"struct.std::__uniq_ptr_data.82" }
%"struct.std::__uniq_ptr_data.82" = type { %"class.std::__uniq_ptr_impl.83" }
%"class.std::__uniq_ptr_impl.83" = type { %"class.std::tuple.84" }
%"class.std::tuple.84" = type { %"struct.std::_Tuple_impl.85" }
%"struct.std::_Tuple_impl.85" = type { %"struct.std::_Tuple_impl.86", %"struct.std::_Head_base.88" }
%"struct.std::_Tuple_impl.86" = type { %"struct.std::_Head_base.87" }
%"struct.std::_Head_base.87" = type { %"class.grpc_core::Arena::PooledDeleter" }
%"class.grpc_core::Arena::PooledDeleter" = type { i8 }
%"struct.std::_Head_base.88" = type { ptr }
%class.anon.94 = type { ptr }
%"class.grpc_core::promise_detail::PromiseLike.109" = type { %"class.grpc_core::promise_detail::Curried" }
%"class.grpc_core::promise_detail::Curried" = type { %class.anon.94, %"class.std::unique_ptr.81" }

; Function Attrs: mustprogress nounwind uwtable
define linkonce_odr noundef nonnull align 1 dereferenceable(1) ptr @_ZNSt10_Head_baseILm1EN9grpc_core5Arena13PooledDeleterELb0EE7_M_headERS3_(ptr noundef nonnull align 1 dereferenceable(1) %0) #6 comdat align 2 {
  %2 = alloca ptr, align 8
  store ptr %0, ptr %2, align 8, !tbaa !370
  %3 = load ptr, ptr %2, align 8, !tbaa !370
  %4 = getelementptr inbounds nuw %"struct.std::_Head_base.87", ptr %3, i32 0, i32 0
  ret ptr %4
}

; Function Attrs: mustprogress nounwind uwtable
define linkonce_odr noundef nonnull align 1 dereferenceable(1) ptr @_ZNSt11_Tuple_implILm1EJN9grpc_core5Arena13PooledDeleterEEE7_M_headERS3_(ptr noundef nonnull align 1 dereferenceable(1) %0) #6 comdat align 2 {
  %2 = alloca ptr, align 8
  store ptr %0, ptr %2, align 8, !tbaa !357
  %3 = load ptr, ptr %2, align 8, !tbaa !357
  %4 = call noundef nonnull align 1 dereferenceable(1) ptr @_ZNSt10_Head_baseILm1EN9grpc_core5Arena13PooledDeleterELb0EE7_M_headERS3_(ptr noundef nonnull align 1 dereferenceable(1) %3) #3
  ret ptr %4
}

; Function Attrs: mustprogress nounwind uwtable
define linkonce_odr noundef nonnull align 8 dereferenceable(8) ptr @_ZNSt10_Head_baseILm0EP19grpc_metadata_batchLb0EE7_M_headERS2_(ptr noundef nonnull align 8 dereferenceable(8) %0) #6 comdat align 2 {
  %2 = alloca ptr, align 8
  store ptr %0, ptr %2, align 8, !tbaa !361
  %3 = load ptr, ptr %2, align 8, !tbaa !361
  %4 = getelementptr inbounds nuw %"struct.std::_Head_base.88", ptr %3, i32 0, i32 0
  ret ptr %4
}

; Function Attrs: mustprogress nounwind uwtable
define linkonce_odr noundef nonnull align 1 dereferenceable(1) ptr @_ZSt12__get_helperILm1EN9grpc_core5Arena13PooledDeleterEJEERT0_RSt11_Tuple_implIXT_EJS3_DpT1_EE(ptr noundef nonnull align 1 dereferenceable(1) %0) #6 comdat {
  %2 = alloca ptr, align 8
  store ptr %0, ptr %2, align 8, !tbaa !357
  %3 = load ptr, ptr %2, align 8, !tbaa !357
  %4 = call noundef nonnull align 1 dereferenceable(1) ptr @_ZNSt11_Tuple_implILm1EJN9grpc_core5Arena13PooledDeleterEEE7_M_headERS3_(ptr noundef nonnull align 1 dereferenceable(1) %3) #3
  ret ptr %4
}

; Function Attrs: mustprogress nounwind uwtable
define linkonce_odr noundef nonnull align 8 dereferenceable(8) ptr @_ZNSt11_Tuple_implILm0EJP19grpc_metadata_batchN9grpc_core5Arena13PooledDeleterEEE7_M_headERS5_(ptr noundef nonnull align 8 dereferenceable(16) %0) #6 comdat align 2 {
  %2 = alloca ptr, align 8
  store ptr %0, ptr %2, align 8, !tbaa !354
  %3 = load ptr, ptr %2, align 8, !tbaa !354
  %4 = getelementptr inbounds i8, ptr %3, i64 8
  %5 = call noundef nonnull align 8 dereferenceable(8) ptr @_ZNSt10_Head_baseILm0EP19grpc_metadata_batchLb0EE7_M_headERS2_(ptr noundef nonnull align 8 dereferenceable(8) %4) #3
  ret ptr %5
}

; Function Attrs: mustprogress nounwind uwtable
define linkonce_odr noundef nonnull align 1 dereferenceable(1) ptr @_ZSt3getILm1EJP19grpc_metadata_batchN9grpc_core5Arena13PooledDeleterEEERNSt13tuple_elementIXT_ESt5tupleIJDpT0_EEE4typeERS9_(ptr noundef nonnull align 8 dereferenceable(16) %0) #6 comdat {
  %2 = alloca ptr, align 8
  store ptr %0, ptr %2, align 8, !tbaa !352
  %3 = load ptr, ptr %2, align 8, !tbaa !352
  %4 = call noundef nonnull align 1 dereferenceable(1) ptr @_ZSt12__get_helperILm1EN9grpc_core5Arena13PooledDeleterEJEERT0_RSt11_Tuple_implIXT_EJS3_DpT1_EE(ptr noundef nonnull align 1 dereferenceable(1) %3) #3
  ret ptr %4
}

; Function Attrs: mustprogress nounwind uwtable
define linkonce_odr noundef nonnull align 8 dereferenceable(8) ptr @_ZSt12__get_helperILm0EP19grpc_metadata_batchJN9grpc_core5Arena13PooledDeleterEEERT0_RSt11_Tuple_implIXT_EJS5_DpT1_EE(ptr noundef nonnull align 8 dereferenceable(16) %0) #6 comdat {
  %2 = alloca ptr, align 8
  store ptr %0, ptr %2, align 8, !tbaa !354
  %3 = load ptr, ptr %2, align 8, !tbaa !354
  %4 = call noundef nonnull align 8 dereferenceable(8) ptr @_ZNSt11_Tuple_implILm0EJP19grpc_metadata_batchN9grpc_core5Arena13PooledDeleterEEE7_M_headERS5_(ptr noundef nonnull align 8 dereferenceable(16) %3) #3
  ret ptr %4
}

; Function Attrs: mustprogress nounwind uwtable
define linkonce_odr noundef nonnull align 1 dereferenceable(1) ptr @_ZNSt15__uniq_ptr_implI19grpc_metadata_batchN9grpc_core5Arena13PooledDeleterEE10_M_deleterEv(ptr noundef nonnull align 8 dereferenceable(16) %0) #6 comdat align 2 {
  %2 = alloca ptr, align 8
  store ptr %0, ptr %2, align 8, !tbaa !350
  %3 = load ptr, ptr %2, align 8
  %4 = getelementptr inbounds nuw %"class.std::__uniq_ptr_impl.83", ptr %3, i32 0, i32 0
  %5 = call noundef nonnull align 1 dereferenceable(1) ptr @_ZSt3getILm1EJP19grpc_metadata_batchN9grpc_core5Arena13PooledDeleterEEERNSt13tuple_elementIXT_ESt5tupleIJDpT0_EEE4typeERS9_(ptr noundef nonnull align 8 dereferenceable(16) %4) #3
  ret ptr %5
}

; Function Attrs: mustprogress nounwind uwtable
define linkonce_odr noundef nonnull align 8 dereferenceable(8) ptr @_ZSt3getILm0EJP19grpc_metadata_batchN9grpc_core5Arena13PooledDeleterEEERNSt13tuple_elementIXT_ESt5tupleIJDpT0_EEE4typeERS9_(ptr noundef nonnull align 8 dereferenceable(16) %0) #6 comdat {
  %2 = alloca ptr, align 8
  store ptr %0, ptr %2, align 8, !tbaa !352
  %3 = load ptr, ptr %2, align 8, !tbaa !352
  %4 = call noundef nonnull align 8 dereferenceable(8) ptr @_ZSt12__get_helperILm0EP19grpc_metadata_batchJN9grpc_core5Arena13PooledDeleterEEERT0_RSt11_Tuple_implIXT_EJS5_DpT1_EE(ptr noundef nonnull align 8 dereferenceable(16) %3) #3
  ret ptr %4
}

; Function Attrs: noinline noreturn nounwind uwtable
define linkonce_odr hidden void @__clang_call_terminate(ptr noundef %0) #12 comdat {
  %2 = call ptr @__cxa_begin_catch(ptr %0) #3
  call void @_ZSt9terminatev() #26
  unreachable
}

; Function Attrs: mustprogress nounwind uwtable
define linkonce_odr void @_ZN9grpc_core5Arena13PooledDeleterclI19grpc_metadata_batchEEvPT_(ptr noundef nonnull align 1 dereferenceable(1) %0, ptr noundef %1) #6 comdat align 2 {
  %3 = alloca ptr, align 8
  %4 = alloca ptr, align 8
  store ptr %0, ptr %3, align 8, !tbaa !365
  store ptr %1, ptr %4, align 8, !tbaa !266
  %5 = load ptr, ptr %3, align 8
  %6 = getelementptr inbounds nuw %"class.grpc_core::Arena::PooledDeleter", ptr %5, i32 0, i32 0
  %7 = load i8, ptr %6, align 1, !tbaa !367, !range !368, !noundef !369
  %8 = trunc i8 %7 to i1
  br i1 %8, label %9, label %14

9:                                                ; preds = %2
  %10 = load ptr, ptr %4, align 8, !tbaa !266
  %11 = icmp eq ptr %10, null
  br i1 %11, label %13, label %12

12:                                               ; preds = %9
  call void @_ZN9grpc_core11MetadataMapI19grpc_metadata_batchJNS_16HttpPathMetadataENS_21HttpAuthorityMetadataENS_18HttpMethodMetadataENS_18HttpStatusMetadataENS_18HttpSchemeMetadataENS_19ContentTypeMetadataENS_10TeMetadataENS_20GrpcEncodingMetadataENS_27GrpcInternalEncodingRequestENS_26GrpcAcceptEncodingMetadataENS_18GrpcStatusMetadataENS_19GrpcTimeoutMetadataENS_31GrpcPreviousRpcAttemptsMetadataENS_27GrpcRetryPushbackMsMetadataENS_17UserAgentMetadataENS_19GrpcMessageMetadataENS_12HostMetadataENS_30EndpointLoadMetricsBinMetadataENS_26GrpcServerStatsBinMetadataENS_20GrpcTraceBinMetadataENS_19GrpcTagsBinMetadataENS_25GrpcLbClientStatsMetadataENS_17LbCostBinMetadataENS_15LbTokenMetadataENS_18XEnvoyPeerMetadataENS_22W3CTraceParentMetadataENS_22GrpcStreamNetworkStateENS_10PeerStringENS_17GrpcStatusContextENS_18GrpcStatusFromWireENS_20GrpcCallWasCancelledENS_12WaitForReadyENS_18IsTransparentRetryENS_16GrpcTrailersOnlyENS_10GrpcTarPitENS_20GrpcRegisteredMethodEEED2Ev(ptr noundef nonnull align 8 dereferenceable(600) %10) #3
  call void @_ZdlPvm(ptr noundef %10, i64 noundef 600) #28
  br label %13

13:                                               ; preds = %12, %9
  br label %14

14:                                               ; preds = %13, %2
  ret void
}

; Function Attrs: mustprogress nounwind uwtable
define linkonce_odr noundef nonnull align 1 dereferenceable(1) ptr @_ZNSt10unique_ptrI19grpc_metadata_batchN9grpc_core5Arena13PooledDeleterEE11get_deleterEv(ptr noundef nonnull align 8 dereferenceable(16) %0) #6 comdat align 2 {
  %2 = alloca ptr, align 8
  store ptr %0, ptr %2, align 8, !tbaa !342
  %3 = load ptr, ptr %2, align 8
  %4 = getelementptr inbounds nuw %"class.std::unique_ptr.81", ptr %3, i32 0, i32 0
  %5 = call noundef nonnull align 1 dereferenceable(1) ptr @_ZNSt15__uniq_ptr_implI19grpc_metadata_batchN9grpc_core5Arena13PooledDeleterEE10_M_deleterEv(ptr noundef nonnull align 8 dereferenceable(16) %4) #3
  ret ptr %5
}

; Function Attrs: mustprogress nounwind uwtable
define linkonce_odr noundef nonnull align 8 dereferenceable(8) ptr @_ZNSt15__uniq_ptr_implI19grpc_metadata_batchN9grpc_core5Arena13PooledDeleterEE6_M_ptrEv(ptr noundef nonnull align 8 dereferenceable(16) %0) #6 comdat align 2 {
  %2 = alloca ptr, align 8
  store ptr %0, ptr %2, align 8, !tbaa !350
  %3 = load ptr, ptr %2, align 8
  %4 = getelementptr inbounds nuw %"class.std::__uniq_ptr_impl.83", ptr %3, i32 0, i32 0
  %5 = call noundef nonnull align 8 dereferenceable(8) ptr @_ZSt3getILm0EJP19grpc_metadata_batchN9grpc_core5Arena13PooledDeleterEEERNSt13tuple_elementIXT_ESt5tupleIJDpT0_EEE4typeERS9_(ptr noundef nonnull align 8 dereferenceable(16) %4) #3
  ret ptr %5
}

; Function Attrs: mustprogress nounwind uwtable
define linkonce_odr void @_ZNSt10unique_ptrI19grpc_metadata_batchN9grpc_core5Arena13PooledDeleterEED2Ev(ptr noundef nonnull align 8 dereferenceable(16) %0) unnamed_addr #6 comdat align 2 personality ptr @__gxx_personality_v0 {
  %2 = alloca ptr, align 8
  %3 = alloca ptr, align 8
  store ptr %0, ptr %2, align 8, !tbaa !342
  %4 = load ptr, ptr %2, align 8
  call void @llvm.lifetime.start.p0(i64 8, ptr %3) #3
  %5 = getelementptr inbounds nuw %"class.std::unique_ptr.81", ptr %4, i32 0, i32 0
  %6 = call noundef nonnull align 8 dereferenceable(8) ptr @_ZNSt15__uniq_ptr_implI19grpc_metadata_batchN9grpc_core5Arena13PooledDeleterEE6_M_ptrEv(ptr noundef nonnull align 8 dereferenceable(16) %5) #3
  store ptr %6, ptr %3, align 8, !tbaa !363
  %7 = load ptr, ptr %3, align 8, !tbaa !363
  %8 = load ptr, ptr %7, align 8, !tbaa !266
  %9 = icmp ne ptr %8, null
  br i1 %9, label %10, label %15

10:                                               ; preds = %1
  %11 = call noundef nonnull align 1 dereferenceable(1) ptr @_ZNSt10unique_ptrI19grpc_metadata_batchN9grpc_core5Arena13PooledDeleterEE11get_deleterEv(ptr noundef nonnull align 8 dereferenceable(16) %4) #3
  %12 = load ptr, ptr %3, align 8, !tbaa !363
  %13 = load ptr, ptr %12, align 8, !tbaa !266
  invoke void @_ZN9grpc_core5Arena13PooledDeleterclI19grpc_metadata_batchEEvPT_(ptr noundef nonnull align 1 dereferenceable(1) %11, ptr noundef %13)
          to label %14 unwind label %17

14:                                               ; preds = %10
  br label %15

15:                                               ; preds = %14, %1
  %16 = load ptr, ptr %3, align 8, !tbaa !363
  store ptr null, ptr %16, align 8, !tbaa !266
  call void @llvm.lifetime.end.p0(i64 8, ptr %3) #3
  ret void

17:                                               ; preds = %10
  %18 = landingpad { ptr, i32 }
          catch ptr null
  %19 = extractvalue { ptr, i32 } %18, 0
  call void @__clang_call_terminate(ptr %19) #26
  unreachable
}

; Function Attrs: inlinehint mustprogress nounwind uwtable
define internal void @_ZN9grpc_core14promise_detail7CurriedIZNS_21promise_filter_detail30InterceptServerInitialMetadataINS_12_GLOBAL__N_122ServerCallTracerFilterEEEvMNT_4CallEFvR19grpc_metadata_batchEPNS2_14FilterCallDataIS6_EERKNS_8CallArgsEEUlSt10unique_ptrIS8_NS_5Arena13PooledDeleterEEE_SL_ED2Ev(ptr noundef nonnull align 8 dereferenceable(24) %0) unnamed_addr #10 align 2 {
  %2 = alloca ptr, align 8
  store ptr %0, ptr %2, align 8, !tbaa !344
  %3 = load ptr, ptr %2, align 8
  %4 = getelementptr inbounds nuw %"class.grpc_core::promise_detail::Curried", ptr %3, i32 0, i32 1
  call void @_ZNSt10unique_ptrI19grpc_metadata_batchN9grpc_core5Arena13PooledDeleterEED2Ev(ptr noundef nonnull align 8 dereferenceable(16) %4) #3
  ret void
}

; Function Attrs: inlinehint mustprogress nounwind uwtable
define internal void @_ZN9grpc_core14promise_detail11PromiseLikeINS0_7CurriedIZNS_21promise_filter_detail30InterceptServerInitialMetadataINS_12_GLOBAL__N_122ServerCallTracerFilterEEEvMNT_4CallEFvR19grpc_metadata_batchEPNS3_14FilterCallDataIS7_EERKNS_8CallArgsEEUlSt10unique_ptrIS9_NS_5Arena13PooledDeleterEEE_SM_EEvED2Ev(ptr noundef nonnull align 8 dereferenceable(24) %0) unnamed_addr #10 align 2 {
  %2 = alloca ptr, align 8
  store ptr %0, ptr %2, align 8, !tbaa !346
  %3 = load ptr, ptr %2, align 8
  %4 = getelementptr inbounds nuw %"class.grpc_core::promise_detail::PromiseLike.109", ptr %3, i32 0, i32 0
  call void @_ZN9grpc_core14promise_detail7CurriedIZNS_21promise_filter_detail30InterceptServerInitialMetadataINS_12_GLOBAL__N_122ServerCallTracerFilterEEEvMNT_4CallEFvR19grpc_metadata_batchEPNS2_14FilterCallDataIS6_EERKNS_8CallArgsEEUlSt10unique_ptrIS8_NS_5Arena13PooledDeleterEEE_SL_ED2Ev(ptr noundef nonnull align 8 dereferenceable(24) %4) #3
  ret void
}

; Function Attrs: mustprogress nounwind uwtable
define internal void @_ZN9grpc_core15InterceptorListISt10unique_ptrI19grpc_metadata_batchNS_5Arena13PooledDeleterEEE7MapImplIZNS_21promise_filter_detail30InterceptServerInitialMetadataINS_12_GLOBAL__N_122ServerCallTracerFilterEEEvMNT_4CallEFvRS2_EPNS8_14FilterCallDataISC_EERKNS_8CallArgsEEUlS5_E_ZNS6_10PrependMapISN_EEvSC_NS_13DebugLocationEEUlvE_E7DestroyEPv(ptr noundef nonnull align 8 dereferenceable(24) %0, ptr noundef %1) unnamed_addr #6 align 2 {
  %3 = alloca ptr, align 8
  %4 = alloca ptr, align 8
  store ptr %0, ptr %3, align 8, !tbaa !320
  store ptr %1, ptr %4, align 8, !tbaa !41
  %5 = load ptr, ptr %4, align 8, !tbaa !41
  call void @_ZN9grpc_core14promise_detail11PromiseLikeINS0_7CurriedIZNS_21promise_filter_detail30InterceptServerInitialMetadataINS_12_GLOBAL__N_122ServerCallTracerFilterEEEvMNT_4CallEFvR19grpc_metadata_batchEPNS3_14FilterCallDataIS7_EERKNS_8CallArgsEEUlSt10unique_ptrIS9_NS_5Arena13PooledDeleterEEE_SM_EEvED2Ev(ptr noundef nonnull align 8 dereferenceable(24) %5) #3
  ret void
}