; Function Attrs: mustprogress nounwind uwtable
define internal void @_ZN9grpc_core15InterceptorListISt10unique_ptrI19grpc_metadata_batchNS_5Arena13PooledDeleterEEE7MapImplIZNS_21promise_filter_detail30InterceptServerInitialMetadataINS_12_GLOBAL__N_122ServerCallTracerFilterEEEvMNT_4CallEFvRS2_EPNS8_14FilterCallDataISC_EERKNS_8CallArgsEEUlS5_E_ZNS6_10PrependMapISN_EEvSC_NS_13DebugLocationEEUlvE_E7DestroyEPv(ptr nonnull readnone align 8 captures(none) %0, ptr noundef captures(none) %1) unnamed_addr #16 align 2 personality ptr @__gxx_personality_v0 {
  %3 = getelementptr inbounds nuw i8, ptr %1, i64 16
  %4 = load ptr, ptr %3, align 8, !tbaa !142
  %.not.i.i.i = icmp eq ptr %4, null
  br i1 %.not.i.i.i, label %_ZN9grpc_core14promise_detail11PromiseLikeINS0_7CurriedIZNS_21promise_filter_detail30InterceptServerInitialMetadataINS_12_GLOBAL__N_122ServerCallTracerFilterEEEvMNT_4CallEFvR19grpc_metadata_batchEPNS3_14FilterCallDataIS7_EERKNS_8CallArgsEEUlSt10unique_ptrIS9_NS_5Arena13PooledDeleterEEE_SM_EEvED2Ev.exit, label %5

5:                                                ; preds = %2
  %6 = getelementptr inbounds nuw i8, ptr %1, i64 8
  %7 = load i8, ptr %6, align 1, !tbaa !167, !range !168, !noundef !169
  %8 = trunc nuw i8 %7 to i1
  br i1 %8, label %9, label %_ZN9grpc_core14promise_detail11PromiseLikeINS0_7CurriedIZNS_21promise_filter_detail30InterceptServerInitialMetadataINS_12_GLOBAL__N_122ServerCallTracerFilterEEEvMNT_4CallEFvR19grpc_metadata_batchEPNS3_14FilterCallDataIS7_EERKNS_8CallArgsEEUlSt10unique_ptrIS9_NS_5Arena13PooledDeleterEEE_SM_EEvED2Ev.exit

9:                                                ; preds = %5
  tail call void @_ZN9grpc_core11MetadataMapI19grpc_metadata_batchJNS_16HttpPathMetadataENS_21HttpAuthorityMetadataENS_18HttpMethodMetadataENS_18HttpStatusMetadataENS_18HttpSchemeMetadataENS_19ContentTypeMetadataENS_10TeMetadataENS_20GrpcEncodingMetadataENS_27GrpcInternalEncodingRequestENS_26GrpcAcceptEncodingMetadataENS_18GrpcStatusMetadataENS_19GrpcTimeoutMetadataENS_31GrpcPreviousRpcAttemptsMetadataENS_27GrpcRetryPushbackMsMetadataENS_17UserAgentMetadataENS_19GrpcMessageMetadataENS_12HostMetadataENS_30EndpointLoadMetricsBinMetadataENS_26GrpcServerStatsBinMetadataENS_20GrpcTraceBinMetadataENS_19GrpcTagsBinMetadataENS_25GrpcLbClientStatsMetadataENS_17LbCostBinMetadataENS_15LbTokenMetadataENS_18XEnvoyPeerMetadataENS_22W3CTraceParentMetadataENS_22GrpcStreamNetworkStateENS_10PeerStringENS_17GrpcStatusContextENS_18GrpcStatusFromWireENS_20GrpcCallWasCancelledENS_12WaitForReadyENS_18IsTransparentRetryENS_16GrpcTrailersOnlyENS_10GrpcTarPitENS_20GrpcRegisteredMethodEEED2Ev(ptr noundef nonnull align 8 dereferenceable(600) %4) #31
  tail call void @_ZdlPvm(ptr noundef nonnull %4, i64 noundef 600) #34
  br label %_ZN9grpc_core14promise_detail11PromiseLikeINS0_7CurriedIZNS_21promise_filter_detail30InterceptServerInitialMetadataINS_12_GLOBAL__N_122ServerCallTracerFilterEEEvMNT_4CallEFvR19grpc_metadata_batchEPNS3_14FilterCallDataIS7_EERKNS_8CallArgsEEUlSt10unique_ptrIS9_NS_5Arena13PooledDeleterEEE_SM_EEvED2Ev.exit

_ZN9grpc_core14promise_detail11PromiseLikeINS0_7CurriedIZNS_21promise_filter_detail30InterceptServerInitialMetadataINS_12_GLOBAL__N_122ServerCallTracerFilterEEEvMNT_4CallEFvR19grpc_metadata_batchEPNS3_14FilterCallDataIS7_EERKNS_8CallArgsEEUlSt10unique_ptrIS9_NS_5Arena13PooledDeleterEEE_SM_EEvED2Ev.exit: ; preds = %2, %5, %9
  store ptr null, ptr %3, align 8, !tbaa !142
  ret void
}